(dp1
S'no_lsgan'
p2
I00
sS'lambda_sup_A'
p3
F0.10000000000000001
sS'lambda_sup_B'
p4
F0.10000000000000001
sS'lambda_z_B'
p5
F0.025000000000000001
sS'seed'
p6
NsS'lambda_A'
p7
F1
sS'lambda_B'
p8
F1
sS'enc_A_B'
p9
I1
sS'which_epoch'
p10
S'latest'
p11
sS'display_freq'
p12
I140
sS'eval_A_freq'
p13
I1
sS'ngf'
p14
I16
sS'numpy_data'
p15
I1
sS'niter_decay'
p16
I25
sS'z_gan'
p17
I1
sS'batchSize'
p18
I32
sS'output_nc'
p19
I1
sS'lr'
p20
F0.00020000000000000001
sS'tbpath'
p21
S'./tbviz/temp/'
p22
sS'beta1'
p23
F0.5
sS'which_model_netD'
p24
S'basic'
p25
sS'expr_dir'
p26
S'./checkpoints/augcgan_model'
p27
sS'norm'
p28
S'instance'
p29
sS'max_gnorm'
p30
F500
sS'save_epoch_freq'
p31
I5
sS'monitor_gnorm'
p32
I01
sS'epoch_count'
p33
I1
sS'continue_train'
p34
I00
sS'num_multi'
p35
I10
sS'nlatent'
p36
I16
sS'which_model_netG'
p37
S'resnet'
p38
sS'grid_size'
p39
I64
sS'niter'
p40
I25
sS'use_dropout'
p41
I00
sS'name'
p42
S'augcgan_model'
p43
sS'input_nc'
p44
I3
sS'stoch_enc'
p45
I00
sS'eval_B_freq'
p46
I1
sS'checkpoints_dir'
p47
S'./checkpoints/'
p48
sS'print_freq'
p49
I100
sS'ndf'
p50
I32
sS'nef'
p51
I16
sS'supervised'
p52
I00
sS'dataroot'
p53
S'../datasets/livneh/'
p54
sS'model'
p55
S'aug_cycle_gan'
p56
sS'gpu_ids'
p57
(lp58
I0
asS'sup_frac'
p59
F0.10000000000000001
s.